target datalayout = "e-m:e-p270:32:32-p271:32:32-p272:64:64-i64:64-i128:128-f80:128-n8:16:32:64-S128"
target triple = "x86_64-pc-linux-gnu"

%struct.darktable_t = type { %struct.dt_codepath_t, i32, i32, ptr, ptr, ptr, ptr, ptr, ptr, ptr, ptr, ptr, ptr, ptr, ptr, ptr, ptr, ptr, ptr, ptr, ptr, ptr, ptr, ptr, ptr, ptr, ptr, ptr, ptr, ptr, [64 x %struct.dt_pthread_mutex_t], %struct.dt_pthread_mutex_t, %struct.dt_pthread_mutex_t, %struct.dt_pthread_mutex_t, %struct.dt_pthread_mutex_t, %struct.dt_pthread_mutex_t, ptr, ptr, ptr, ptr, ptr, ptr, ptr, ptr, ptr, ptr, ptr, ptr, ptr, %struct.dt_lua_state_t, ptr, double, ptr, i32, [47 x i32], i32, i32, ptr, ptr, %struct.dt_sys_resources_t, %struct.dt_backthumb_t, %struct.dt_gimp_t }
%struct.dt_codepath_t = type { i8, [3 x i8] }
%struct.dt_pthread_mutex_t = type { %union.pthread_mutex_t }
%union.pthread_mutex_t = type { %struct.__pthread_mutex_s }
%struct.__pthread_mutex_s = type { i32, i32, i32, i32, i32, i16, i16, %struct.__pthread_internal_list }
%struct.__pthread_internal_list = type { ptr, ptr }
%struct.dt_lua_state_t = type { i32 }
%struct.dt_sys_resources_t = type { i64, i64, ptr, ptr, i32 }
%struct.dt_backthumb_t = type { double, double, i32, i32, i32, i32 }
%struct.dt_gimp_t = type { i32, ptr, ptr, i32, i32 }
%struct.dt_variables_params_t = type { ptr, ptr, i32, i32, ptr, i32, i32, ptr }
%struct.dt_variables_data_t = type { ptr, ptr, ptr, ptr, i32, i32, i32, i32, i32, i32, i32, i32, i32, i32, i32, i32, ptr, ptr, ptr, i32, i32, i32, ptr, ptr, ptr, i32, i32, ptr, float, float, float, float, float, float, ptr, ptr, ptr, ptr, ptr, double, double, double, i32, i32 }
%struct.dt_image_basic_exif_t = type { [24 x i8], [64 x i8], [64 x i8] }

@darktable = external global %struct.darktable_t, align 8

; Function Attrs: nounwind uwtable
define void @dt_variables_set_exif_basic_info(ptr noundef %0, ptr noundef %1) #0 {
  %3 = alloca ptr, align 8
  %4 = alloca ptr, align 8
  store ptr %0, ptr %3, align 8, !tbaa !6
  store ptr %1, ptr %4, align 8, !tbaa !141
  %5 = load ptr, ptr %3, align 8, !tbaa !6
  %6 = getelementptr inbounds nuw %struct.dt_variables_params_t, ptr %5, i32 0, i32 4
  %7 = load ptr, ptr %6, align 8, !tbaa !15
  %8 = getelementptr inbounds nuw %struct.dt_variables_data_t, ptr %7, i32 0, i32 1
  %9 = load ptr, ptr %8, align 8, !tbaa !131
  %10 = icmp ne ptr %9, null
  br i1 %10, label %11, label %21

11:                                               ; preds = %2
  %12 = load ptr, ptr %3, align 8, !tbaa !6
  %13 = getelementptr inbounds nuw %struct.dt_variables_params_t, ptr %12, i32 0, i32 4
  %14 = load ptr, ptr %13, align 8, !tbaa !15
  %15 = getelementptr inbounds nuw %struct.dt_variables_data_t, ptr %14, i32 0, i32 1
  %16 = load ptr, ptr %15, align 8, !tbaa !131
  call void @g_date_time_unref(ptr noundef %16)
  %17 = load ptr, ptr %3, align 8, !tbaa !6
  %18 = getelementptr inbounds nuw %struct.dt_variables_params_t, ptr %17, i32 0, i32 4
  %19 = load ptr, ptr %18, align 8, !tbaa !15
  %20 = getelementptr inbounds nuw %struct.dt_variables_data_t, ptr %19, i32 0, i32 1
  store ptr null, ptr %20, align 8, !tbaa !131
  br label %21

21:                                               ; preds = %11, %2
  %22 = load ptr, ptr %4, align 8, !tbaa !141
  %23 = getelementptr inbounds nuw %struct.dt_image_basic_exif_t, ptr %22, i32 0, i32 0
  %24 = getelementptr inbounds [24 x i8], ptr %23, i64 0, i64 0
  %25 = load i8, ptr %24, align 1, !tbaa !111
  %26 = icmp ne i8 %25, 0
  br i1 %26, label %27, label %37

27:                                               ; preds = %21
  %28 = load ptr, ptr %4, align 8, !tbaa !141
  %29 = getelementptr inbounds nuw %struct.dt_image_basic_exif_t, ptr %28, i32 0, i32 0
  %30 = getelementptr inbounds [24 x i8], ptr %29, i64 0, i64 0
  %31 = load ptr, ptr getelementptr inbounds nuw (%struct.darktable_t, ptr @darktable, i32 0, i32 57), align 8, !tbaa !88
  %32 = call ptr @dt_datetime_exif_to_gdatetime(ptr noundef %30, ptr noundef %31)
  %33 = load ptr, ptr %3, align 8, !tbaa !6
  %34 = getelementptr inbounds nuw %struct.dt_variables_params_t, ptr %33, i32 0, i32 4
  %35 = load ptr, ptr %34, align 8, !tbaa !15
  %36 = getelementptr inbounds nuw %struct.dt_variables_data_t, ptr %35, i32 0, i32 1
  store ptr %32, ptr %36, align 8, !tbaa !131
  br label %37

37:                                               ; preds = %27, %21
  %38 = load ptr, ptr %3, align 8, !tbaa !6
  %39 = getelementptr inbounds nuw %struct.dt_variables_params_t, ptr %38, i32 0, i32 4
  %40 = load ptr, ptr %39, align 8, !tbaa !15
  %41 = getelementptr inbounds nuw %struct.dt_variables_data_t, ptr %40, i32 0, i32 2
  %42 = load ptr, ptr %41, align 8, !tbaa !132
  call void @g_free(ptr noundef %42)
  %43 = load ptr, ptr %3, align 8, !tbaa !6
  %44 = getelementptr inbounds nuw %struct.dt_variables_params_t, ptr %43, i32 0, i32 4
  %45 = load ptr, ptr %44, align 8, !tbaa !15
  %46 = getelementptr inbounds nuw %struct.dt_variables_data_t, ptr %45, i32 0, i32 2
  store ptr null, ptr %46, align 8, !tbaa !132
  %47 = load ptr, ptr %4, align 8, !tbaa !141
  %48 = getelementptr inbounds nuw %struct.dt_image_basic_exif_t, ptr %47, i32 0, i32 1
  %49 = getelementptr inbounds [64 x i8], ptr %48, i64 0, i64 0
  %50 = load i8, ptr %49, align 1, !tbaa !111
  %51 = icmp ne i8 %50, 0
  br i1 %51, label %52, label %61

52:                                               ; preds = %37
  %53 = load ptr, ptr %4, align 8, !tbaa !141
  %54 = getelementptr inbounds nuw %struct.dt_image_basic_exif_t, ptr %53, i32 0, i32 1
  %55 = getelementptr inbounds [64 x i8], ptr %54, i64 0, i64 0
  %56 = call noalias ptr @g_strdup(ptr noundef %55)
  %57 = load ptr, ptr %3, align 8, !tbaa !6
  %58 = getelementptr inbounds nuw %struct.dt_variables_params_t, ptr %57, i32 0, i32 4
  %59 = load ptr, ptr %58, align 8, !tbaa !15
  %60 = getelementptr inbounds nuw %struct.dt_variables_data_t, ptr %59, i32 0, i32 2
  store ptr %56, ptr %60, align 8, !tbaa !132
  br label %61

61:                                               ; preds = %52, %37
  %62 = load ptr, ptr %3, align 8, !tbaa !6
  %63 = getelementptr inbounds nuw %struct.dt_variables_params_t, ptr %62, i32 0, i32 4
  %64 = load ptr, ptr %63, align 8, !tbaa !15
  %65 = getelementptr inbounds nuw %struct.dt_variables_data_t, ptr %64, i32 0, i32 3
  %66 = load ptr, ptr %65, align 8, !tbaa !133
  call void @g_free(ptr noundef %66)
  %67 = load ptr, ptr %3, align 8, !tbaa !6
  %68 = getelementptr inbounds nuw %struct.dt_variables_params_t, ptr %67, i32 0, i32 4
  %69 = load ptr, ptr %68, align 8, !tbaa !15
  %70 = getelementptr inbounds nuw %struct.dt_variables_data_t, ptr %69, i32 0, i32 3
  store ptr null, ptr %70, align 8, !tbaa !133
  %71 = load ptr, ptr %4, align 8, !tbaa !141
  %72 = getelementptr inbounds nuw %struct.dt_image_basic_exif_t, ptr %71, i32 0, i32 2
  %73 = getelementptr inbounds [64 x i8], ptr %72, i64 0, i64 0
  %74 = load i8, ptr %73, align 1, !tbaa !111
  %75 = icmp ne i8 %74, 0
  br i1 %75, label %76, label %85

76:                                               ; preds = %61
  %77 = load ptr, ptr %4, align 8, !tbaa !141
  %78 = getelementptr inbounds nuw %struct.dt_image_basic_exif_t, ptr %77, i32 0, i32 2
  %79 = getelementptr inbounds [64 x i8], ptr %78, i64 0, i64 0
  %80 = call noalias ptr @g_strdup(ptr noundef %79)
  %81 = load ptr, ptr %3, align 8, !tbaa !6
  %82 = getelementptr inbounds nuw %struct.dt_variables_params_t, ptr %81, i32 0, i32 4
  %83 = load ptr, ptr %82, align 8, !tbaa !15
  %84 = getelementptr inbounds nuw %struct.dt_variables_data_t, ptr %83, i32 0, i32 3
  store ptr %80, ptr %84, align 8, !tbaa !133
  br label %85

85:                                               ; preds = %76, %61
  ret void
}