; Function Attrs: nounwind uwtable
define void @dt_variables_set_exif_basic_info(ptr noundef readonly captures(none) %0, ptr noundef %1) local_unnamed_addr #0 {
  %3 = getelementptr inbounds nuw i8, ptr %0, i64 24
  %4 = load ptr, ptr %3, align 8, !tbaa !11
  %5 = getelementptr inbounds nuw i8, ptr %4, i64 8
  %6 = load ptr, ptr %5, align 8, !tbaa !124
  %.not = icmp eq ptr %6, null
  br i1 %.not, label %10, label %7

7:                                                ; preds = %2
  tail call void @g_date_time_unref(ptr noundef nonnull %6) #16
  %8 = load ptr, ptr %3, align 8, !tbaa !11
  %9 = getelementptr inbounds nuw i8, ptr %8, i64 8
  store ptr null, ptr %9, align 8, !tbaa !124
  br label %10

10:                                               ; preds = %7, %2
  %11 = phi ptr [ %8, %7 ], [ %4, %2 ]
  %12 = load i8, ptr %1, align 1, !tbaa !105
  %.not16 = icmp eq i8 %12, 0
  br i1 %.not16, label %18, label %13

13:                                               ; preds = %10
  %14 = load ptr, ptr getelementptr inbounds nuw (i8, ptr @darktable, i64 3328), align 8, !tbaa !74
  %15 = tail call ptr @dt_datetime_exif_to_gdatetime(ptr noundef nonnull %1, ptr noundef %14) #16
  %16 = load ptr, ptr %3, align 8, !tbaa !11
  %17 = getelementptr inbounds nuw i8, ptr %16, i64 8
  store ptr %15, ptr %17, align 8, !tbaa !124
  br label %18

18:                                               ; preds = %13, %10
  %19 = phi ptr [ %16, %13 ], [ %11, %10 ]
  %20 = getelementptr inbounds nuw i8, ptr %19, i64 16
  %21 = load ptr, ptr %20, align 8, !tbaa !125
  tail call void @g_free(ptr noundef %21) #16
  %22 = load ptr, ptr %3, align 8, !tbaa !11
  %23 = getelementptr inbounds nuw i8, ptr %22, i64 16
  store ptr null, ptr %23, align 8, !tbaa !125
  %24 = getelementptr inbounds nuw i8, ptr %1, i64 24
  %25 = load i8, ptr %24, align 1, !tbaa !105
  %.not17 = icmp eq i8 %25, 0
  br i1 %.not17, label %30, label %26

26:                                               ; preds = %18
  %27 = tail call noalias ptr @g_strdup(ptr noundef nonnull %24) #16
  %28 = load ptr, ptr %3, align 8, !tbaa !11
  %29 = getelementptr inbounds nuw i8, ptr %28, i64 16
  store ptr %27, ptr %29, align 8, !tbaa !125
  br label %30

30:                                               ; preds = %26, %18
  %31 = phi ptr [ %28, %26 ], [ %22, %18 ]
  %32 = getelementptr inbounds nuw i8, ptr %31, i64 24
  %33 = load ptr, ptr %32, align 8, !tbaa !126
  tail call void @g_free(ptr noundef %33) #16
  %34 = load ptr, ptr %3, align 8, !tbaa !11
  %35 = getelementptr inbounds nuw i8, ptr %34, i64 24
  store ptr null, ptr %35, align 8, !tbaa !126
  %36 = getelementptr inbounds nuw i8, ptr %1, i64 88
  %37 = load i8, ptr %36, align 1, !tbaa !105
  %.not18 = icmp eq i8 %37, 0
  br i1 %.not18, label %42, label %38

38:                                               ; preds = %30
  %39 = tail call noalias ptr @g_strdup(ptr noundef nonnull %36) #16
  %40 = load ptr, ptr %3, align 8, !tbaa !11
  %41 = getelementptr inbounds nuw i8, ptr %40, i64 24
  store ptr %39, ptr %41, align 8, !tbaa !126
  br label %42

42:                                               ; preds = %38, %30
  ret void
}